target datalayout = "e-m:e-p270:32:32-p271:32:32-p272:64:64-i64:64-i128:128-f80:128-n8:16:32:64-S128"
target triple = "x86_64-pc-linux-gnu"

%struct.strvec = type { ptr, i64, i64 }
%struct.object_id = type { [32 x i8], i32 }
%struct.child_process = type { %struct.strvec, %struct.strvec, i32, i32, i64, ptr, ptr, i32, i32, i32, ptr, i16, ptr }

@.str.130 = private unnamed_addr constant [6 x i8] c"reset\00", align 1
@is_null_oid.null_hash = internal constant [32 x i8] zeroinitializer, align 16
@.str.177 = private unnamed_addr constant [8 x i8] c"--merge\00", align 1

; Function Attrs: inlinehint nounwind uwtable
define internal i32 @is_null_oid(ptr noundef %0) #1 {
  %2 = alloca ptr, align 8
  store ptr %0, ptr %2, align 8, !tbaa !84
  %3 = load ptr, ptr %2, align 8, !tbaa !84
  %4 = getelementptr inbounds nuw %struct.object_id, ptr %3, i32 0, i32 0
  %5 = getelementptr inbounds [32 x i8], ptr %4, i64 0, i64 0
  %6 = call i32 @memcmp(ptr noundef %5, ptr noundef @is_null_oid.null_hash, i64 noundef 32) #12
  %7 = icmp ne i32 %6, 0
  %8 = xor i1 %7, true
  %9 = zext i1 %8 to i32
  ret i32 %9
}

; Function Attrs: nounwind uwtable
define internal i32 @reset_merge(ptr noundef %0) #0 {
  %2 = alloca ptr, align 8
  %3 = alloca %struct.child_process, align 8
  store ptr %0, ptr %2, align 8, !tbaa !84
  call void @llvm.lifetime.start.p0(i64 120, ptr %3) #11
  call void @llvm.memcpy.p0.p0.i64(ptr align 8 %3, ptr align 8 @__const.reset_merge.cmd, i64 120, i1 false)
  %4 = getelementptr inbounds nuw %struct.child_process, ptr %3, i32 0, i32 11
  %5 = load i16, ptr %4, align 8
  %6 = and i16 %5, -9
  %7 = or i16 %6, 8
  store i16 %7, ptr %4, align 8
  %8 = getelementptr inbounds nuw %struct.child_process, ptr %3, i32 0, i32 0
  call void (ptr, ...) @strvec_pushl(ptr noundef %8, ptr noundef @.str.130, ptr noundef @.str.177, ptr noundef null)
  %9 = load ptr, ptr %2, align 8, !tbaa !84
  %10 = call i32 @is_null_oid(ptr noundef %9)
  %11 = icmp ne i32 %10, 0
  br i1 %11, label %17, label %12

12:                                               ; preds = %1
  %13 = getelementptr inbounds nuw %struct.child_process, ptr %3, i32 0, i32 0
  %14 = load ptr, ptr %2, align 8, !tbaa !84
  %15 = call ptr @oid_to_hex(ptr noundef %14)
  %16 = call ptr @strvec_push(ptr noundef %13, ptr noundef %15)
  br label %17

17:                                               ; preds = %12, %1
  %18 = call i32 @run_command(ptr noundef %3)
  call void @llvm.lifetime.end.p0(i64 120, ptr %3) #11
  ret i32 %18
}