; Function Attrs: nounwind uwtable
define internal fastcc i32 @reset_merge(ptr noundef nonnull %0) unnamed_addr #0 {
  %2 = alloca %struct.child_process, align 8
  call void @llvm.lifetime.start.p0(i64 120, ptr nonnull %2) #20
  call void @llvm.memcpy.p0.p0.i64(ptr noundef nonnull align 8 dereferenceable(120) %2, ptr noundef nonnull align 8 dereferenceable(120) @__const.do_merge.cmd, i64 120, i1 false)
  %3 = getelementptr inbounds nuw i8, ptr %2, i64 104
  store i16 8, ptr %3, align 8
  call void (ptr, ...) @strvec_pushl(ptr noundef nonnull %2, ptr noundef nonnull @.str.130, ptr noundef nonnull @.str.177, ptr noundef null) #20
  %bcmp.i = call i32 @bcmp(ptr noundef nonnull readonly dereferenceable(32) %0, ptr noundef nonnull dereferenceable(32) @is_null_oid.null_hash, i64 32)
  %.not.i.not = icmp eq i32 %bcmp.i, 0
  br i1 %.not.i.not, label %7, label %4

4:                                                ; preds = %1
  %5 = call ptr @oid_to_hex(ptr noundef nonnull %0) #20
  %6 = call ptr @strvec_push(ptr noundef nonnull %2, ptr noundef %5) #20
  br label %7

7:                                                ; preds = %4, %1
  %8 = call i32 @run_command(ptr noundef nonnull %2) #20
  call void @llvm.lifetime.end.p0(i64 120, ptr nonnull %2) #20
  ret i32 %8
}